(dp0
(S'alias'
p1
S'frank'
p2
tp3
I1
s(S'games'
p4
S'at'
p5
tp6
I1
s(S'lod'
p7
S'my'
p8
tp9
I1
s(S'choice'
p10
S'targets-either'
p11
tp12
I1
s(S'spent'
p13
S'the'
p14
tp15
I1
s(S'crime'
p16
S'began'
p17
tp18
I1
s(S'have'
p19
S'helped'
p20
tp21
I1
s(S'could'
p22
S'social'
p23
tp24
I1
s(S'and'
p25
S'breaking'
p26
tp27
I1
s(S'i'
p28
S'started'
p29
tp30
I2
s(g17
S'on'
p31
tp32
I1
s(S'chest'
p33
g28
tp34
I1
s(g28
S'remember'
p35
tp36
I2
s(S'knew'
p37
S'who'
p38
tp39
I1
s(S'travels'
p40
S'the'
p41
tp42
I1
s(S'specialize'
p43
S'in'
p44
tp45
I1
s(S'containing'
p46
S'mci'
p47
tp48
I1
s(S'internal'
p49
S'computer'
p50
tp51
I1
s(S'bunch'
p52
S'of'
p53
tp54
I1
s(S'juvenile'
p55
g28
tp56
I1
s(S'dec'
p57
S's'
p58
tp59
I1
s(S'that'
p60
S'it'
p61
tp62
I1
s(S'the'
p63
S'elite'
p64
tp65
I3
s(S'about'
p66
S'basic'
p67
tp68
I1
s(S'my'
p69
S'keep'
p70
tp71
I1
s(S'been'
p72
S'voted'
p73
tp74
I1
s(S'the'
p75
S'telephone'
p76
tp77
I1
s(S'computer'
p78
S'criminal'
p79
tp80
I1
s(S'shadowy'
p81
S'electronic'
p82
tp83
I1
s(S'a'
p84
S'friends'
p85
tp86
I1
s(S'target'
p87
S'of'
p88
tp89
I1
s(S'researchers'
p90
S'whose'
p91
tp92
I1
s(S'clear'
p93
S'that'
p94
tp95
I1
s(g84
S'telephone'
p96
tp97
I1
s(S'and'
p98
S'that'
p99
tp100
I3
s(S'sure'
p101
g28
tp102
I1
s(S'by'
p103
S'telephone'
p104
tp105
I1
s(S'1988'
p106
S'when'
p107
tp108
I1
s(S'they'
p109
S'made'
p110
tp111
I1
s(S'call'
p112
S'the'
p113
tp114
I1
s(S'300-baud'
p115
S'novation'
p116
tp117
I1
s(S'the'
p118
S'dozens'
p119
tp120
I1
s(S'night'
p121
S'before'
p122
tp123
I1
s(g28
S'wasn'
p124
tp125
I2
s(S'across'
p126
S'the'
p127
tp128
I1
s(S'the'
p129
S'passport'
p130
tp131
I1
s(S'prepared'
p132
S'for'
p133
tp134
I1
s(S'started'
p135
S'college'
p136
tp137
I1
s(S'modem-a'
p138
g115
tp139
I1
s(S'from'
p140
S'rnoc'
p141
tp142
I2
s(g8
S'ego'
p143
tp144
I1
s(g50
S'system'
p145
tp146
I1
s(S'ended'
p147
S'up'
p148
tp149
I1
s(S'lists'
p150
S'of'
p151
tp152
I1
s(S'for'
p153
S'safe-'
p154
tp155
I1
s(S'of'
p156
S'the'
p157
tp158
I5
s(S'bloodaxe'
p159
S'who'
p160
tp161
I1
s(g96
S'technician'
p162
tp163
I1
s(S'monitored'
p164
g28
tp165
I1
s(S'year'
p166
S'was'
p167
tp168
I1
s(S'hobby'
p169
S'like'
p170
tp171
I1
s(S'elite'
p172
S'of'
p173
tp174
I1
s(g28
S'posted'
p175
tp176
I1
s(S'next'
p177
g28
tp178
I1
s(S'what'
p179
S'messages'
p180
tp181
I1
s(S'number'
p182
S'so'
p183
tp184
I1
s(S'people'
p185
S'got'
p186
tp187
I1
s(S'stuff-my'
p188
g150
tp189
I1
s(S'passwords'
p190
S'to'
p191
tp192
I1
s(S'could'
p193
S'monitor'
p194
tp195
I1
s(S'parents'
p196
S'had'
p197
tp198
I1
s(S'may'
p199
S'enter'
p200
tp201
I1
s(S'our'
p202
S'view'
p203
tp204
I1
s(g154
S'keeping'
p205
tp206
I1
s(S'messages'
p207
S'and'
p208
tp209
I1
s(S'without'
p210
S'walls'
p211
tp212
I1
s(S't'
p213
g28
tp214
I1
s(S'computer'
p215
g16
tp216
I1
s(S'but'
p217
S'then'
p218
tp219
I1
s(S'systems'
p220
S'listen'
p221
tp222
I1
s(S'nabbed'
p223
S'and'
p224
tp225
I1
s(g29
S'to'
p226
tp227
I1
s(S'to'
p228
S'get'
p229
tp230
I1
s(S'finding'
p231
S'out'
p232
tp233
I1
s(S'systems'
p234
S'or'
p235
tp236
I1
s(S'from'
p237
S'my'
p238
tp239
I1
s(S'the'
p240
S'operating'
p241
tp242
I1
s(S'know'
p243
S'their'
p244
tp245
I1
s(g84
S'computer'
p246
tp247
I2
s(S'oryan'
p248
S'quest'
p249
tp250
I1
s(S'my'
p251
S'purloined'
p252
tp253
I1
s(S'once'
p254
S'they'
p255
tp256
I1
s(S'people'
p257
S'sat'
p258
tp259
I1
s(S'the'
p260
S'most'
p261
tp262
I1
s(S'lex'
p263
S'he'
p264
tp265
I1
s(S'but'
p266
g28
tp267
I2
s(S'my'
p268
g188
tp269
I1
s(g23
S'engineer'
p270
tp271
I1
s(S'had'
p272
S'learned'
p273
tp274
I1
s(S'to'
p275
g84
tp276
I1
s(g79
S'looking'
p277
tp278
I1
s(S'hackers'
p279
S'like'
p280
tp281
I1
s(g31
S'my'
p282
tp283
I1
s(S'was'
p284
g84
tp285
I2
s(S'all'
p286
S'fun'
p287
tp288
I1
s(g261
S'feared'
p289
tp290
I1
s(S'at'
p291
g84
tp292
I1
s(S'of'
p293
S'hacking'
p294
tp295
I1
s(S'modem'
p296
S'was'
p297
tp298
I1
s(g28
g13
tp299
I1
s(g84
g52
tp300
I1
s(g84
S'seedy'
p301
tp302
I1
s(S'country'
p303
g25
tp304
I1
s(S'very'
p305
S'first'
p306
tp307
I1
s(S'been'
p308
g223
tp309
I1
s(g28
S'learned'
p310
tp311
I1
s(S'girls'
p312
g217
tp313
I1
s(S'time'
p314
g109
tp315
I1
s(S'knew'
p316
S'where'
p317
tp318
I1
s(S'dropping'
p319
S'them'
p320
tp321
I1
s(g76
S'switches'
p322
tp323
I1
s(S'could'
p324
S'call'
p325
tp326
I1
s(S'importantly'
p327
S'membership'
p328
tp329
I1
s(S'was'
p330
S'that'
p331
tp332
I3
s(S'planet'
p333
g28
tp334
I1
s(S'all'
p335
S'the'
p336
tp337
I2
s(g84
S'sick'
p338
tp339
I1
s(g26
S'into'
p340
tp341
I1
s(S'lex'
p342
S'luthor'
p343
tp344
I1
s(S'more'
p345
S'but'
p346
tp347
I1
s(g136
S'that'
p348
tp349
I1
s(S'apart'
p350
S'in'
p351
tp352
I1
s(S'call'
p353
S'other'
p354
tp355
I1
s(S'legendary'
p356
g279
tp357
I1
s(g249
S'and'
p358
tp359
I1
s(S'lines'
p360
S'in'
p361
tp362
I1
s(S'to'
p363
g43
tp364
I1
s(S'of'
p365
S'fun'
p366
tp367
I1
s(S'of'
p368
S'moria'
p369
tp370
I1
s(S'that'
p371
S'enabled'
p372
tp373
I1
s(g28
S'felt'
p374
tp375
I1
s(S'messages'
p376
S'using'
p377
tp378
I1
s(S'and'
p379
S'no'
p380
tp381
I1
s(g325
S'but'
p382
tp383
I1
s(S'my'
p384
S'colleagues'
p385
tp386
I1
s(g346
S'the'
p387
tp388
I2
s(S'lame'
p389
S'local'
p390
tp391
I1
s(S'we'
p392
S'd'
p393
tp394
I1
s(S'signed'
p395
S'them'
p396
tp397
I1
s(S'hid'
p398
S'behind'
p399
tp400
I1
s(S'soon'
p401
S'after'
p402
tp403
I1
s(g232
g384
tp404
I1
s(S'let'
p405
S'you'
p406
tp407
I1
s(S'every'
p408
g314
tp409
I1
s(S'had'
p410
S'cracked'
p411
tp412
I1
s(S'hackers'
p413
g126
tp414
I1
s(S'system'
p415
S'used'
p416
tp417
I1
s(S'time'
p418
g28
tp419
I1
s(S'only'
p420
g63
tp421
I1
s(S'systems'
p422
g28
tp423
I1
s(g277
S'back'
p424
tp425
I1
s(S'used'
p426
g228
tp427
I1
s(S'left'
p428
S'notes'
p429
tp430
I1
s(S'and'
p431
S'then'
p432
tp433
I1
s(S'and'
p434
S'trash'
p435
tp436
I1
s(S'busted'
p437
S'including'
p438
tp439
I1
s(S'systems'
p440
S'bit'
p441
tp442
I1
s(S'the'
p443
g112
tp444
I2
s(S'calls'
p445
S'and'
p446
tp447
I1
s(S'cars'
p448
S'or'
p449
tp450
I1
s(S'these'
p451
S'guys'
p452
tp453
I1
s(S'treasure'
p454
g33
tp455
I1
s(S'unparalleled'
p456
S'vantage'
p457
tp458
I1
s(S'told'
p459
S'me'
p460
tp461
I1
s(g446
S'eventually'
p462
tp463
I1
s(S'the'
p464
S'sysop'
p465
tp466
I1
s(S'scary'
p467
S'but'
p468
tp469
I1
s(g130
g275
tp470
I1
s(S'authority'
p471
S'but'
p472
tp473
I1
s(S'into'
p474
S'military'
p475
tp476
I1
s(S'would'
p477
g405
tp478
I1
s(S'up'
p479
S'my'
p480
tp481
I1
s(S'not'
p482
g263
tp483
I1
s(S'but'
p484
S'it'
p485
tp486
I1
s(g306
g138
tp487
I1
s(g94
S'this'
p488
tp489
I1
s(g84
S'teenage'
p490
tp491
I1
s(S'technical'
p492
S'schematics'
p493
tp494
I1
s(S'things'
p495
S'began'
p496
tp497
I1
s(g85
S'house'
p498
tp499
I1
s(S'and'
p500
S'new'
p501
tp502
I1
s(S'but'
p503
g495
tp504
I1
s(S'reports'
p505
g434
tp506
I1
s(S'in'
p507
S'the'
p508
tp509
I1
s(S'home'
p510
S'phones'
p511
tp512
I1
s(S'were'
p513
g10
tp514
I1
s(S'consultant'
p515
S'and'
p516
tp517
I1
s(S'of'
p518
S'doom'
p519
tp520
I3
s(S'and'
p521
S'the'
p522
tp523
I2
s(g496
S'to'
p524
tp525
I1
s(S'from'
p526
S'an'
p527
tp528
I1
s(S'these'
p529
S'areas'
p530
tp531
I1
s(g432
S'stay'
p532
tp533
I1
s(g53
S'top'
p534
tp535
I1
s(g226
S'post'
p536
tp537
I1
s(g5
S'first'
p538
tp539
I1
s(g145
S'and'
p540
tp541
I1
s(g28
g395
tp542
I1
s(S'at'
p543
S'the'
p544
tp545
I1
s(S'york'
p546
S'and'
p547
tp548
I1
s(S'getting'
p549
g443
tp550
I1
s(g28
S'hooked'
p551
tp552
I1
s(S'trolling'
p553
S'for'
p554
tp555
I1
s(g390
S'bulletin'
p556
tp557
I1
s(g340
g440
tp558
I1
s(g527
g456
tp559
I1
s(S'pretty'
p560
g467
tp561
I1
s(S'change'
p562
S'people'
p563
tp564
I1
s(S'lex'
p565
g459
tp566
I1
s(S'california'
p567
S'florida'
p568
tp569
I1
s(g493
S'for'
p570
tp571
I1
s(S'legion'
p572
g518
tp573
I3
s(g488
S'was'
p574
tp575
I1
s(S'they'
p576
g37
tp577
I1
s(S'that'
p578
S'blew'
p579
tp580
I1
s(S'computer'
p581
g220
tp582
I2
s(g203
S'hackers'
p583
tp584
I1
s(g82
S'realm'
p585
tp586
I1
s(S'board'
p587
S'and'
p588
tp589
I1
s(S'm'
p590
S'still'
p591
tp592
I1
s(S'electronic'
p593
g40
tp594
I1
s(g28
S'never'
p595
tp596
I1
s(S'hacking'
p597
S'which'
p598
tp599
I1
s(g595
S'was'
p600
tp601
I1
s(S'bbs'
p602
S'what'
p603
tp604
I1
s(g61
S'was'
p605
tp606
I5
s(g84
S'competitive'
p607
tp608
I1
s(S'hooked'
p609
g28
tp610
I1
s(g221
S'into'
p611
tp612
I1
s(S'scored'
p613
S'my'
p614
tp615
I1
s(S'service'
p616
S'warning'
p617
tp618
I1
s(g151
S'passwords'
p619
tp620
I1
s(S'but'
p621
g254
tp622
I1
s(S'all'
p623
g268
tp624
I1
s(S'its'
p625
S'warning'
p626
tp627
I1
s(g224
S'immediately'
p628
tp629
I1
s(g84
S'notebook'
p630
tp631
I1
s(S'the'
p632
g602
tp633
I1
s(g127
g303
tp634
I1
s(S'in'
p635
g567
tp636
I1
s(S'bit'
p637
g28
tp638
I1
s(g124
g213
tp639
I2
s(S'statute'
p640
S'of'
p641
tp642
I1
s(S'statement'
p643
S'or'
p644
tp645
I1
s(S'numbers'
p646
S'to'
p647
tp648
I1
s(S'me'
p649
S'access'
p650
tp651
I1
s(S'of'
p652
g84
tp653
I3
s(S'and'
p654
S'one'
p655
tp656
I1
s(S'hacker'
p657
S'by'
p658
tp659
I1
s(S'case'
p660
S'became'
p661
tp662
I1
s(S'small'
p663
g333
tp664
I1
s(S'the'
p665
S'first'
p666
tp667
I1
s(g110
g84
tp668
I1
s(S'would'
p669
S'demand'
p670
tp671
I1
s(S'night'
p672
S'reading'
p673
tp674
I1
s(g673
g335
tp675
I1
s(S'company'
p676
S'manuals-and'
p677
tp678
I1
s(g658
S'frank'
p679
tp680
I1
s(S'to'
p681
S'their'
p682
tp683
I1
s(S'when'
p684
g28
tp685
I2
s(g393
g562
tp686
I1
s(S'although'
p687
g401
tp688
I1
s(g534
g185
tp689
I1
s(S'lod'
p690
S'was'
p691
tp692
I1
s(g382
g482
tp693
I1
s(S'where'
p694
g28
tp695
I1
s(g366
g503
tp696
I1
s(S'had'
p697
g428
tp698
I1
s(S'1983'
p699
g98
tp700
I1
s(S'didn'
p701
g213
tp702
I1
s(S'that'
p703
S'was'
p704
tp705
I1
s(S'was'
p706
S'just'
p707
tp708
I1
s(S'like'
p709
g28
tp710
I1
s(S'my'
p711
S'mind'
p712
tp713
I1
s(S'all'
p714
S'part'
p715
tp716
I1
s(g396
S'with'
p717
tp718
I1
s(S'they'
p719
S'controlled'
p720
tp721
I1
s(S'the'
p722
g166
tp723
I1
s(S'gone'
p724
S'to'
p725
tp726
I1
s(S'lived'
p727
S'all'
p728
tp729
I1
s(S'calls'
p730
S'all'
p731
tp732
I1
s(S'may'
p733
g19
tp734
I1
s(S'granted'
p735
g649
tp736
I1
s(S'explored'
p737
S'the'
p738
tp739
I1
s(S'dropping'
p740
S'out'
p741
tp742
I1
s(S'lex'
p743
g58
tp744
I1
s(S'head'
p745
S'of'
p746
tp747
I1
s(S'after'
p748
g28
tp749
I2
s(g475
g581
tp750
I1
s(g380
S'longer'
p751
tp752
I1
s(g116
S'applecat'
p753
tp754
I1
s(g175
S'messages'
p755
tp756
I1
s(S'from'
p757
g342
tp758
I1
s(g297
g129
tp759
I2
s(S'by'
p760
S'hacking'
p761
tp762
I1
s(g191
g57
tp763
I1
s(S'are'
p764
S'the'
p765
tp766
I1
s(S'size'
p767
g652
tp768
I1
s(g84
S'call'
p769
tp770
I2
s(S'004'
p771
g451
tp772
I1
s(g753
g722
tp773
I1
s(S'bbss'
p774
S'but'
p775
tp776
I1
s(g591
S'glad'
p777
tp778
I1
s(S'where'
p779
g257
tp780
I1
s(g162
g543
tp781
I1
s(S'legendary'
p782
S'hacker'
p783
tp784
I1
s(g369
S'>from'
p785
tp786
I1
s(S'cyberspace'
p787
S'looks'
p788
tp789
I1
s(g387
g640
tp790
I1
s(g728
S'hackers'
p791
tp792
I1
s(S'the'
p793
g672
tp794
I2
s(g28
g701
tp795
I1
s(g322
g635
tp796
I1
s(g35
g231
tp797
I1
s(g385
S'had'
p798
tp799
I1
s(S'and'
p800
g690
tp801
I1
s(S'remember'
p802
S'the'
p803
tp804
I1
s(S'security'
p805
g515
tp806
I1
s(S'under'
p807
S'the'
p808
tp809
I1
s(S'that'
p810
g669
tp811
I1
s(S'he'
p812
g727
tp813
I1
s(g336
S'back'
p814
tp815
I1
s(g522
S'intruder'
p816
tp817
I1
s(g532
S'up'
p818
tp819
I1
s(S'stumbled'
p820
S'onto'
p821
tp822
I1
s(S'time'
p823
S'to'
p824
tp825
I1
s(g372
S'the'
p826
tp827
I1
s(S'boxes'
p828
g371
tp829
I1
s(S'doom'
p830
S'that'
p831
tp832
I1
s(S'time'
p833
g266
tp834
I1
s(S'after'
p835
S'somehow'
p836
tp837
I1
s(S'of'
p838
S'course'
p839
tp840
I1
s(S'illegal'
p841
S'still'
p842
tp843
I1
s(S'nobody'
p844
g316
tp845
I1
s(S'mysterious'
p846
S'people'
p847
tp848
I1
s(g280
S'bill'
p849
tp850
I1
s(S'toll-free'
p851
g730
tp852
I1
s(S'when'
p853
g565
tp854
I1
s(S'trophy'
p855
g660
tp856
I1
s(g84
S'member'
p857
tp858
I1
s(g788
S'like'
p859
tp860
I1
s(S'was'
p861
S'now'
p862
tp863
I1
s(g816
g697
tp864
I1
s(g28
g393
tp865
I2
s(S'envied'
p866
S'hackers'
p867
tp868
I1
s(S'doom'
p869
g654
tp870
I1
s(g867
S'of'
p871
tp872
I1
s(S'really'
p873
S'know'
p874
tp875
I1
s(g107
g84
tp876
I1
s(g320
g291
tp877
I1
s(S'computer'
p878
S'science'
p879
tp880
I1
s(g294
g800
tp881
I1
s(g547
g193
tp882
I1
s(S'rest'
p883
S'of'
p884
tp885
I1
s(S'hasn'
p886
g213
tp887
I1
s(g628
S'taking'
p888
tp889
I1
s(g84
g643
tp890
I1
s(g536
S'on'
p891
tp892
I1
s(g213
S'trying'
p893
tp894
I1
s(g803
S'hacker'
p895
tp896
I1
s(S'real'
p897
S'reason'
p898
tp899
I1
s(g647
g353
tp900
I1
s(S'birthday'
p901
g684
tp902
I1
s(g898
g28
tp903
I1
s(S'barriers'
p904
S'or'
p905
tp906
I1
s(S'in'
p907
S'lod'
p908
tp909
I2
s(g270
g84
tp910
I1
s(S'screen'
p911
S'with'
p912
tp913
I1
s(g84
S'profit'
p914
tp915
I1
s(g712
g28
tp916
I1
s(g229
S'into'
p917
tp918
I1
s(g317
g812
tp919
I1
s(S'payphones'
p920
g810
tp921
I1
s(S'card'
p922
S'numbers'
p923
tp924
I2
s(S'not'
p925
g60
tp926
I1
s(S'out'
p927
S'of'
p928
tp929
I2
s(S'hacker'
p930
S'as'
p931
tp932
I1
s(S'many'
p933
g513
tp934
I1
s(g213
S'run'
p935
tp936
I1
s(S'swelled'
p937
S'to'
p938
tp939
I1
s(S'because'
p940
S'it'
p941
tp942
I1
s(S'spread'
p943
S'it'
p944
tp945
I1
s(S'agent'
p946
g771
tp947
I1
s(S'you'
p948
g853
tp949
I1
s(S'an'
p950
S'ordinary'
p951
tp952
I1
s(S'calling'
p953
g389
tp954
I1
s(S'night'
p955
S'posting'
p956
tp957
I1
s(S'that'
p958
g576
tp959
I1
s(g603
g28
tp960
I2
s(g452
S'were'
p961
tp962
I1
s(S'routinely'
p963
g164
tp964
I1
s(g715
S'of'
p965
tp966
I1
s(g58
g49
tp967
I1
s(g655
S'of'
p968
tp969
I1
s(g331
g844
tp970
I1
s(g530
S'at'
p971
tp972
I1
s(g579
g711
tp973
I1
s(g449
S'sports'
p974
tp975
I1
s(S'among'
p976
g356
tp977
I1
s(g244
S'phone'
p978
tp979
I1
s(g84
g454
tp980
I1
s(g974
g484
tp981
I1
s(S'called'
p982
g948
tp983
I1
s(S'how'
p984
S'to'
p985
tp986
I1
s(g429
g46
tp987
I1
s(S'13-year-'
p988
S'old'
p989
tp990
I1
s(S'was'
p991
g757
tp992
I1
s(S'bbs'
p993
g835
tp994
I1
s(g912
g625
tp995
I1
s(g746
S'legion'
p996
tp997
I1
s(S'you'
p998
S'they'
p999
tp1000
I1
s(g951
g993
tp1001
I1
s(g538
g665
tp1002
I1
s(S'will'
p1003
S'my'
p1004
tp1005
I1
s(S'the'
p1006
g767
tp1007
I1
s(S'point'
p1008
g210
tp1009
I1
s(g411
g933
tp1010
I1
s(g519
g28
tp1011
I1
s(g821
S'the'
p1012
tp1013
I1
s(S'stolen'
p1014
S'credit'
p1015
tp1016
I1
s(S'that'
p1017
g28
tp1018
I4
s(g84
S'root'
p1019
tp1020
I1
s(g826
S'user'
p1021
tp1022
I1
s(g679
S'drake'
p1023
tp1024
I2
s(g252
S'telephone'
p1025
tp1026
I1
s(S'yet'
p1027
S'on'
p1028
tp1029
I1
s(g908
g735
tp1030
I1
s(g879
g838
tp1031
I1
s(g88
S'any'
p1032
tp1033
I1
s(S'came'
p1034
g363
tp1035
I1
s(S'call'
p1036
g991
tp1037
I1
s(S'be'
p1038
g841
tp1039
I1
s(S'amount'
p1040
g365
tp1041
I1
s(g783
S'group'
p1042
tp1043
I1
s(S'obstruct'
p1044
g202
tp1045
I1
s(S'make'
p1046
g84
tp1047
I1
s(S'not'
p1048
g84
tp1049
I1
s(S'credit'
p1050
g505
tp1051
I1
s(S'limitations'
p1052
g886
tp1053
I1
s(g857
g156
tp1054
I1
s(S'the'
p1055
S'prophet'
p1056
tp1057
I1
s(g273
g237
tp1058
I1
s(S'13th'
p1059
g901
tp1060
I1
s(g58
S'mystique'
p1061
tp1062
I1
s(g119
S'of'
p1063
tp1064
I1
s(g84
S'hat'
p1065
tp1066
I1
s(S'spent'
p1067
g807
tp1068
I1
s(S'we'
p1069
g737
tp1070
I1
s(g28
g272
tp1071
I3
s(g28
S'received'
p1072
tp1073
I1
s(g28
S'hacked'
p1074
tp1075
I1
s(S'aliases'
p1076
g621
tp1077
I1
s(S'into'
p1078
g84
tp1079
I2
s(g989
S'voice'
p1080
tp1081
I1
s(g614
g305
tp1082
I1
s(g791
g398
tp1083
I1
s(g28
S'did'
p1084
tp1085
I1
s(S'ultimate'
p1086
g87
tp1087
I1
s(S'mines'
p1088
g368
tp1089
I1
s(S'through'
p1090
g84
tp1091
I1
s(S'fights'
p1092
S'we'
p1093
tp1094
I1
s(g255
S'trusted'
p1095
tp1096
I1
s(S'out'
p1097
g1027
tp1098
I1
s(S'most'
p1099
S'of'
p1100
tp1101
I2
s(S'the'
p1102
g418
tp1103
I2
s(S'my'
p1104
g988
tp1105
I1
s(S'stamp'
p1106
S'implied'
p1107
tp1108
I1
s(g544
S'drop'
p1109
tp1110
I1
s(S'member'
p1111
S'legion'
p1112
tp1113
I1
s(g630
S'listing'
p1114
tp1115
I1
s(S'kept'
p1116
g84
tp1117
I1
s(S'fell'
p1118
g350
tp1119
I1
s(S'the'
p1120
g897
tp1121
I1
s(S'company'
p1122
S'computers-the'
p1123
tp1124
I1
s(g84
g663
tp1125
I1
s(g180
g846
tp1126
I1
s(g416
g103
tp1127
I1
s(g938
g1006
tp1128
I1
s(g343
S'the'
p1129
tp1130
I1
s(g755
g28
tp1131
I1
s(S'and'
p1132
g866
tp1133
I1
s(S'into'
p1134
g920
tp1135
I1
s(g462
S'earn'
p1136
tp1137
I1
s(S'modem'
p1138
S'were'
p1139
tp1140
I1
s(g28
g820
tp1141
I1
s(S'life'
p1142
S'of'
p1143
tp1144
I1
s(S'heavy'
p1145
g719
tp1146
I1
s(g38
g28
tp1147
I1
s(S'convincing'
p1148
g464
tp1149
I1
s(S'to'
p1150
g1044
tp1151
I1
s(S'the'
p1152
S'words'
p1153
tp1154
I1
s(S'credit'
p1155
g922
tp1156
I2
s(g570
S'blue'
p1157
tp1158
I1
s(S'of'
p1159
S'those'
p1160
tp1161
I1
s(g460
S'that'
p1162
tp1163
I2
s(g70
S'as'
p1164
tp1165
I1
s(g393
S'reveal'
p1166
tp1167
I1
s(g661
g84
tp1168
I1
s(S'was'
p1169
S'suddenly'
p1170
tp1171
I1
s(g831
g1106
tp1172
I1
s(S'the'
p1173
S'sites'
p1174
tp1175
I1
s(S'fall'
p1176
g878
tp1177
I1
s(S'and'
p1178
g4
tp1179
I1
s(g751
S'had'
p1180
tp1181
I1
s(S'dr'
p1182
S'strangelove'
p1183
tp1184
I1
s(g725
S'sleep'
p1185
tp1186
I1
s(g923
g190
tp1187
I1
s(S'was'
p1188
g177
tp1189
I1
s(S'few'
p1190
S'weeks'
p1191
tp1192
I1
s(g931
g28
tp1193
I1
s(S'be'
p1194
g84
tp1195
I1
s(g888
g623
tp1196
I1
s(S'who'
p1197
g22
tp1198
I1
s(g374
g709
tp1199
I1
s(S'lod'
p1200
S'into'
p1201
tp1202
I1
s(g935
g1097
tp1203
I1
s(g20
S'and'
p1204
tp1205
I1
s(g1114
g118
tp1206
I1
s(S'little'
p1207
g55
tp1208
I1
s(g399
g1076
tp1209
I1
s(g1021
S'to'
p1210
tp1211
I1
s(g208
g179
tp1212
I1
s(g183
S'you'
p1213
tp1214
I1
s(g28
S'knew'
p1215
tp1216
I1
s(g258
S'around'
p1217
tp1218
I1
s(g361
g529
tp1219
I1
s(g563
g58
tp1220
I1
s(S'security'
p1221
g90
tp1222
I1
s(g619
g251
tp1223
I1
s(g583
g764
tp1224
I1
s(S'who'
p1225
g873
tp1226
I1
s(g287
g1178
tp1227
I1
s(g133
S'actually'
p1228
tp1229
I1
s(g84
S'fed'
p1230
tp1231
I1
s(g1023
S'my'
p1232
tp1233
I1
s(S'chosen'
p1234
g940
tp1235
I1
s(g1217
S'talking'
p1236
tp1237
I1
s(g956
g376
tp1238
I1
s(S'call'
p1239
S'pull'
p1240
tp1241
I1
s(g568
g500
tp1242
I1
s(S'happened'
p1243
S'to'
p1244
tp1245
I1
s(g1065
S'erik'
p1246
tp1247
I1
s(g842
g28
tp1248
I1
s(S'life'
p1249
g1067
tp1250
I1
s(S'secret'
p1251
g616
tp1252
I1
s(S'password'
p1253
g927
tp1254
I1
s(S'boards'
p1255
g779
tp1256
I1
s(g485
g1243
tp1257
I1
s(S'ones'
p1258
g1225
tp1259
I1
s(S'reputation'
p1260
g943
tp1261
I1
s(g438
S'bill'
p1262
tp1263
I1
s(g170
g448
tp1264
I1
s(g1160
S'hacks'
p1265
tp1266
I1
s(g282
g1059
tp1267
I1
s(g1170
g976
tp1268
I1
s(g186
g437
tp1269
I1
s(S'telephone'
p1270
g445
tp1271
I1
s(g893
S'to'
p1272
tp1273
I1
s(g1004
g855
tp1274
I1
s(g501
g546
tp1275
I1
s(g761
S'it'
p1276
tp1277
I1
s(g377
g1014
tp1278
I1
s(S'of'
p1279
S'what'
p1280
tp1281
I1
s(S'phucked'
p1282
g946
tp1283
I1
s(g574
S'not'
p1284
tp1285
I2
s(S'had'
p1286
g72
tp1287
I2
s(g611
g1270
tp1288
I1
s(g999
g477
tp1289
I1
s(g839
g379
tp1290
I1
s(S'all'
p1291
g955
tp1292
I1
s(g28
g1034
tp1293
I1
s(g895
g1092
tp1294
I1
s(g961
g1145
tp1295
I1
s(S'career'
p1296
S'as'
p1297
tp1298
I1
s(g67
S'programming'
p1299
tp1300
I1
s(g197
g724
tp1301
I1
s(S'was'
p1302
g609
tp1303
I1
s(g246
g805
tp1304
I2
s(g720
g1099
tp1305
I1
s(g707
g84
tp1306
I1
s(S'what'
p1307
g787
tp1308
I1
s(g301
S'nocturnal'
p1309
tp1310
I1
s(S'only'
p1311
g1258
tp1312
I1
s(g617
S'me'
p1313
tp1314
I1
s(g717
g1152
tp1315
I1
s(g516
g1282
tp1316
I1
s(g1139
S'spent'
p1317
tp1318
I1
s(g143
g937
tp1319
I1
s(g122
S'my'
p1320
tp1321
I1
s(g814
g207
tp1322
I1
s(g213
g132
tp1323
I1
s(S'money'
p1324
g408
tp1325
I1
s(S'was'
p1326
S'having'
p1327
tp1328
I1
s(g457
g1008
tp1329
I1
s(g1153
g1111
tp1330
I1
s(g1028
S'most'
p1331
tp1332
I1
s(S'mail'
p1333
S'we'
p1334
tp1335
I1
s(g1072
g84
tp1336
I1
s(g1123
g1086
tp1337
I1
s(g1240
S'our'
p1338
tp1339
I1
s(g241
g415
tp1340
I1
s(g1164
g84
tp1341
I2
s(g406
g243
tp1342
I1
s(g393
S'wait'
p1343
tp1344
I1
s(S'existence-a'
p1345
S'secret'
p1346
tp1347
I1
s(S'rnoc'
p1348
g248
tp1349
I1
s(g1084
S'seems'
p1350
tp1351
I1
s(g1215
S'about'
p1352
tp1353
I1
s(S'doors'
p1354
g1150
tp1355
I1
s(g11
S'telco'
p1356
tp1357
I1
s(g1185
g431
tp1358
I1
s(g905
S'securely-locked'
p1359
tp1360
I1
s(g211
S'impenetrable'
p1361
tp1362
I1
s(g84
S'heady'
p1363
tp1364
I1
s(g1246
g159
tp1365
I1
s(g289
g1132
tp1366
I1
s(S'his'
p1367
S'life'
p1368
tp1369
I1
s(g511
g1134
tp1370
I1
s(g205
g28
tp1371
I1
s(g1317
g953
tp1372
I1
s(g704
g560
tp1373
I1
s(g666
g1190
tp1374
I1
s(g849
g140
tp1375
I2
s(g1343
S'until'
p1376
tp1377
I1
s(g84
g81
tp1378
I1
s(g1019
g1253
tp1379
I1
s(S'the'
p1380
S'opening'
p1381
tp1382
I1
s(g965
g743
tp1383
I1
s(g1320
g1260
tp1384
I1
s(g1166
g345
tp1385
I1
s(g1095
g998
tp1386
I1
s(g1230
g1104
tp1387
I1
s(g28
g590
tp1388
I1
s(g264
S'always'
p1389
tp1390
I1
s(S'drake'
p1391
g925
tp1392
I1
s(S'that'
p1393
g420
tp1394
I1
s(g348
g1176
tp1395
I1
s(g677
g319
tp1396
I1
s(g808
g1
tp1397
I1
s(S'like'
p1398
g1182
tp1399
I1
s(g235
g1173
tp1400
I1
s(g44
S'unix'
p1401
tp1402
I1
s(g738
S'internet'
p1403
tp1404
I1
s(g785
g1380
tp1405
I1
s(g64
g199
tp1406
I1
s(g1389
g982
tp1407
I1
s(g84
S'successful'
p1408
tp1409
I1
s(g148
g740
tp1410
I1
s(S'almost'
p1411
S'limitless'
p1412
tp1413
I1
s(g978
g182
tp1414
I1
s(g141
g1197
tp1415
I1
s(g84
g1142
tp1416
I1
s(g58
g510
tp1417
I1
s(g194
g360
tp1418
I1
s(g28
g613
tp1419
I1
s(g1157
g828
tp1420
I1
s(g1129
g745
tp1421
I1
s(g871
g714
tp1422
I1
s(g1042
g572
tp1423
I1
s(g1174
S'of'
p1424
tp1425
I1
s(g1359
g1354
tp1426
I1
s(g1363
g833
tp1427
I1
s(g465
g1017
tp1428
I1
s(g472
S'more'
p1429
tp1430
I1
s(S'has'
p1431
S'now'
p1432
tp1433
I1
s(g1299
S'and'
p1434
tp1435
I1
s(g1109
S'of'
p1436
tp1437
I1
s(g644
g84
tp1438
I1
s(g490
g657
tp1439
I1
s(g1093
g426
tp1440
I1
s(g1327
g84
tp1441
I1
s(g1429
g327
tp1442
I1
s(g1012
g1088
tp1443
I1
s(g1143
g215
tp1444
I3
s(g682
S'private'
p1445
tp1446
I1
s(g47
g1155
tp1447
I1
s(S'the'
p1448
g1251
tp1449
I1
s(g167
g699
tp1450
I1
s(g14
g883
tp1451
I1
s(S'some'
p1452
g1279
tp1453
I1
s(g435
g774
tp1454
I1
s(S'from'
p1455
g1448
tp1456
I1
s(g351
g106
tp1457
I1
s(g310
g984
tp1458
I1
s(g1213
g324
tp1459
I1
s(g1401
g1234
tp1460
I1
s(g498
g153
tp1461
I1
s(S'make'
p1462
g851
tp1463
I1
s(g1338
S'enemies'
p1464
tp1465
I1
s(g1356
g234
tp1466
I1
s(g157
g782
tp1467
I1
s(S'parlayed'
p1468
g1367
tp1469
I1
s(g1074
g1069
tp1470
I1
s(g914
g760
tp1471
I1
s(S'was'
p1472
g101
tp1473
I1
s(g554
g312
tp1474
I1
s(g104
g1122
tp1475
I2
s(g836
g1148
tp1476
I1
s(g1061
g330
tp1477
I1
s(g424
g1452
tp1478
I1
s(g1136
g69
tp1479
I1
s(g1346
g1249
tp1480
I1
s(g1403
g526
tp1481
I1
s(g99
g296
tp1482
I1
s(g441
S'by'
p1483
tp1484
I1
s(S'into'
p1485
g7
tp1486
I1
s(g1265
g28
tp1487
I1
s(g598
g28
tp1488
I1
s(S'busted'
p1489
g687
tp1490
I1
s(g765
g1311
tp1491
I1
s(g328
g907
tp1492
I1
s(g1434
g553
tp1493
I1
s(g585
g694
tp1494
I1
s(S'was'
p1495
g93
tp1496
I1
s(g607
g169
tp1497
I1
s(S'bulletin'
p1498
g587
tp1499
I1
s(g1236
g66
tp1500
I1
s(g605
g286
tp1501
I1
s(S'my'
p1502
g196
tp1503
I1
s(g1284
g950
tp1504
I1
s(g1412
g471
tp1505
I1
s(g200
S'it'
p1506
tp1507
I1
s(g91
g1333
tp1508
I1
s(g650
g681
tp1509
I1
s(g551
g479
tp1510
I1
s(g626
g1393
tp1511
I1
s(g1032
g930
tp1512
I1
s(g1334
g963
tp1513
I1
s(g1368
S'in'
p1514
tp1515
I1
s(g847
g1398
tp1516
I1
s(g1191
g748
tp1517
I1
s(g480
g1138
tp1518
I1
s(g917
g392
tp1519
I1
s(g84
g1207
tp1520
I1
s(g28
g1116
tp1521
I1
s(g862
g507
tp1522
I1
s(g1376
g1502
tp1523
I1
s(S'descent'
p1524
g1078
tp1525
I1
s(g1210
g1462
tp1526
I2
s(g1056
g28
tp1527
I1
s(g641
g1052
tp1528
I1
s(g1408
g1296
tp1529
I1
s(g73
g1485
tp1530
I1
s(g160
g1431
tp1531
I1
s(g1080
g733
tp1532
I1
s(S'elite'
p1533
S'when'
p1534
tp1535
I1
s(g600
g1489
tp1536
I1
s(g1232
g1524
tp1537
I1
s(g1432
g1468
tp1538
I1
s(g524
g1118
tp1539
I1
s(g818
g1291
tp1540
I1
s(S'was'
p1541
S'rummaging'
p1542
tp1543
I1
s(g1542
g1090
tp1544
I1
s(g1183
g521
tp1545
I1
s(g1244
g1038
tp1546
I2
s(g670
g1324
tp1547
I1
s(g338
g1040
tp1548
I1
s(g1381
g911
tp1549
I1
s(g28
g147
tp1550
I1
s(g769
g1455
tp1551
I1
s(g1483
g637
tp1552
I1
s(g556
g1255
tp1553
I1
s(g1309
g1345
tp1554
I1
s(g891
g632
tp1555
I1
s(g238
g593
tp1556
I1
s(g1350
g84
tp1557
I1
s(g218
g28
tp1558
I1
s(g1228
g549
tp1559
I1
s(g1361
g904
tp1560
I1
s(g28
g284
tp1561
I10
s(g1180
S'the'
p1562
tp1563
I1
s(g1352
g597
tp1564
I1
s(g1107
g1411
tp1565
I1
s(S'break'
p1566
g474
tp1567
I1
s(g354
g413
tp1568
I1
s(g874
g1307
tp1569
I1
s(g777
g28
tp1570
I1
s(g1464
g1050
tp1571
I1
s(g971
g1003
tp1572
I1
s(g985
g1566
tp1573
I1
s(g540
g492
tp1574
I1
s(g1445
g1498
tp1575
I1
s.